target datalayout = "e-m:e-p270:32:32-p271:32:32-p272:64:64-i64:64-i128:128-f80:128-n8:16:32:64-S128"
target triple = "x86_64-pc-linux-gnu"

%struct._zval_struct = type { %union._zend_value, %union.anon, %union.anon.2 }
%union._zend_value = type { i64 }
%union.anon = type { i32 }
%union.anon.2 = type { i32 }
%struct._zend_array = type { %struct._zend_refcounted_h, %union.anon.4, i32, %union.anon.6, i32, i32, i32, i32, i64, ptr }
%struct._zend_refcounted_h = type { i32, %union.anon.3 }
%union.anon.3 = type { i32 }
%union.anon.4 = type { i32 }
%union.anon.6 = type { ptr }
%struct._zend_phpdbg_globals = type { [11 x %struct._zend_array], %struct._zend_array, %struct._zend_array, ptr, ptr, %struct.phpdbg_frame_t, i32, ptr, %struct.phpdbg_lexer_data, ptr, %struct.sigaction, i32, i64, %struct.phpdbg_btree, %struct.phpdbg_btree, %struct._zend_array, %struct._zend_array, %struct._zend_array, %struct._zend_array, ptr, ptr, ptr, i8, ptr, ptr, ptr, i64, ptr, %struct._zval_struct, i32, i32, i8, i8, ptr, ptr, ptr, %struct._zend_array, ptr, ptr, ptr, [3 x %struct.anon.9], ptr, %struct.anon.10, i64, [2 x ptr], [3 x ptr], ptr, i8, ptr, ptr, [500 x i8], i32, %struct.phpdbg_signal_safe_mem, ptr, i64, ptr, i64 }
%struct.phpdbg_frame_t = type { i32, ptr, ptr }
%struct.phpdbg_lexer_data = type { i32, ptr, ptr, ptr, ptr, i32 }
%struct.sigaction = type { %union.anon.8, %struct.__sigset_t, i32, ptr }
%union.anon.8 = type { ptr }
%struct.__sigset_t = type { [16 x i64] }
%struct.phpdbg_btree = type { i64, i64, i8, ptr }
%struct.anon.9 = type { i32 }
%struct.anon.10 = type { i8, i32, i32, ptr, i32 }
%struct.phpdbg_signal_safe_mem = type { ptr, i8, ptr, ptr }
%struct._php_stream_wrapper = type { ptr, ptr, i32 }
%struct._php_stream_wrapper_ops = type { ptr, ptr, ptr, ptr, ptr, ptr, ptr, ptr, ptr, ptr, ptr }

@phpdbg_globals = hidden global %struct._zend_phpdbg_globals zeroinitializer, align 8
@.str.22 = private unnamed_addr constant [7 x i8] c"php://\00", align 1
@.str.23 = private unnamed_addr constant [6 x i8] c"stdin\00", align 1
@.str.24 = private unnamed_addr constant [2 x i8] c"r\00", align 1

; Function Attrs: nounwind uwtable
define hidden ptr @phpdbg_stream_url_wrap_php(ptr noundef %0, ptr noundef %1, ptr noundef %2, i32 noundef %3, ptr noundef %4, ptr noundef %5) #0 {
  %7 = alloca ptr, align 8
  %8 = alloca ptr, align 8
  %9 = alloca ptr, align 8
  %10 = alloca ptr, align 8
  %11 = alloca i32, align 4
  %12 = alloca ptr, align 8
  %13 = alloca ptr, align 8
  %14 = alloca ptr, align 8
  store ptr %0, ptr %8, align 8, !tbaa !167
  store ptr %1, ptr %9, align 8, !tbaa !75
  store ptr %2, ptr %10, align 8, !tbaa !75
  store i32 %3, ptr %11, align 4, !tbaa !98
  store ptr %4, ptr %12, align 8, !tbaa !168
  store ptr %5, ptr %13, align 8, !tbaa !151
  %15 = load ptr, ptr %9, align 8, !tbaa !75
  %16 = call i32 @strncasecmp(ptr noundef %15, ptr noundef @.str.22, i64 noundef 6) #25
  %17 = icmp ne i32 %16, 0
  br i1 %17, label %21, label %18

18:                                               ; preds = %6
  %19 = load ptr, ptr %9, align 8, !tbaa !75
  %20 = getelementptr inbounds i8, ptr %19, i64 6
  store ptr %20, ptr %9, align 8, !tbaa !75
  br label %21

21:                                               ; preds = %18, %6
  %22 = load ptr, ptr %9, align 8, !tbaa !75
  %23 = call i32 @strncasecmp(ptr noundef %22, ptr noundef @.str.23, i64 noundef 6) #25
  %24 = icmp ne i32 %23, 0
  br i1 %24, label %34, label %25

25:                                               ; preds = %21
  %26 = load ptr, ptr getelementptr inbounds nuw (%struct._zend_phpdbg_globals, ptr @phpdbg_globals, i32 0, i32 48), align 8, !tbaa !169
  %27 = icmp ne ptr %26, null
  br i1 %27, label %28, label %34

28:                                               ; preds = %25
  call void @llvm.lifetime.start.p0(i64 8, ptr %14) #22
  %29 = load ptr, ptr getelementptr inbounds nuw (%struct._zend_phpdbg_globals, ptr @phpdbg_globals, i32 0, i32 48), align 8, !tbaa !169
  %30 = call i32 @fileno(ptr noundef %29) #22
  %31 = call i32 @dup(i32 noundef %30) #22
  %32 = call ptr @_php_stream_fopen_from_fd(i32 noundef %31, ptr noundef @.str.24, ptr noundef null, i1 noundef zeroext false)
  store ptr %32, ptr %14, align 8, !tbaa !153
  %33 = load ptr, ptr %14, align 8, !tbaa !153
  store ptr %33, ptr %7, align 8
  call void @llvm.lifetime.end.p0(i64 8, ptr %14) #22
  br label %47

34:                                               ; preds = %25, %21
  %35 = load ptr, ptr getelementptr inbounds nuw (%struct._zend_phpdbg_globals, ptr @phpdbg_globals, i32 0, i32 49), align 8, !tbaa !170
  %36 = getelementptr inbounds nuw %struct._php_stream_wrapper, ptr %35, i32 0, i32 0
  %37 = load ptr, ptr %36, align 8, !tbaa !171
  %38 = getelementptr inbounds nuw %struct._php_stream_wrapper_ops, ptr %37, i32 0, i32 0
  %39 = load ptr, ptr %38, align 8, !tbaa !174
  %40 = load ptr, ptr %8, align 8, !tbaa !167
  %41 = load ptr, ptr %9, align 8, !tbaa !75
  %42 = load ptr, ptr %10, align 8, !tbaa !75
  %43 = load i32, ptr %11, align 4, !tbaa !98
  %44 = load ptr, ptr %12, align 8, !tbaa !168
  %45 = load ptr, ptr %13, align 8, !tbaa !151
  %46 = call ptr %39(ptr noundef %40, ptr noundef %41, ptr noundef %42, i32 noundef %43, ptr noundef %44, ptr noundef %45)
  store ptr %46, ptr %7, align 8
  br label %47

47:                                               ; preds = %34, %28
  %48 = load ptr, ptr %7, align 8
  ret ptr %48
}