; Function Attrs: nounwind uwtable
define hidden ptr @phpdbg_stream_url_wrap_php(ptr noundef %0, ptr noundef %1, ptr noundef %2, i32 noundef %3, ptr noundef %4, ptr noundef %5) #0 {
  %7 = tail call i32 @strncasecmp(ptr noundef %1, ptr noundef nonnull @.str.22, i64 noundef 6) #30
  %.not = icmp eq i32 %7, 0
  %spec.select.idx = select i1 %.not, i64 6, i64 0
  %spec.select = getelementptr inbounds nuw i8, ptr %1, i64 %spec.select.idx
  %8 = tail call i32 @strncasecmp(ptr noundef %spec.select, ptr noundef nonnull @.str.23, i64 noundef 6) #30
  %9 = icmp eq i32 %8, 0
  %10 = load ptr, ptr getelementptr inbounds nuw (i8, ptr @phpdbg_globals, i64 1624), align 8
  %11 = icmp ne ptr %10, null
  %or.cond = select i1 %9, i1 %11, i1 false
  br i1 %or.cond, label %12, label %16

12:                                               ; preds = %6
  %13 = tail call i32 @fileno(ptr noundef nonnull %10) #27
  %14 = tail call i32 @dup(i32 noundef %13) #27
  %15 = tail call ptr @_php_stream_fopen_from_fd(i32 noundef %14, ptr noundef nonnull @.str.24, ptr noundef null, i1 noundef zeroext false) #27
  br label %21

16:                                               ; preds = %6
  %17 = load ptr, ptr getelementptr inbounds nuw (i8, ptr @phpdbg_globals, i64 1632), align 8, !tbaa !148
  %18 = load ptr, ptr %17, align 8, !tbaa !149
  %19 = load ptr, ptr %18, align 8, !tbaa !152
  %20 = tail call ptr %19(ptr noundef %0, ptr noundef %spec.select, ptr noundef %2, i32 noundef %3, ptr noundef %4, ptr noundef %5) #27
  br label %21

21:                                               ; preds = %16, %12
  %.0 = phi ptr [ %15, %12 ], [ %20, %16 ]
  ret ptr %.0
}